target datalayout = "e-m:e-p270:32:32-p271:32:32-p272:64:64-i64:64-i128:128-f80:128-n8:16:32:64-S128"
target triple = "x86_64-pc-linux-gnu"

%struct.RelationData = type { %struct.RelFileLocator, ptr, i32, i32, i8, i8, i8, i8, i8, i32, i32, i32, i32, ptr, ptr, i32, %struct.LockInfoData, ptr, ptr, ptr, ptr, ptr, i8, ptr, ptr, ptr, ptr, ptr, ptr, i32, ptr, i8, ptr, ptr, i32, i8, i32, ptr, i8, ptr, ptr, ptr, ptr, ptr, ptr, ptr, i32, ptr, ptr, ptr, ptr, ptr, ptr, ptr, ptr, ptr, ptr, ptr, ptr, ptr, ptr, ptr, ptr, ptr, ptr, ptr, i32, i8, ptr }
%struct.RelFileLocator = type { i32, i32, i32 }
%struct.LockInfoData = type { %struct.LockRelId }
%struct.LockRelId = type { i32, i32 }
%struct.FormData_pg_class = type { i32, %struct.nameData, i32, i32, i32, i32, i32, i32, i32, i32, float, i32, i32, i8, i8, i8, i8, i16, i16, i8, i8, i8, i8, i8, i8, i8, i8, i32, i32, i32 }
%struct.nameData = type { [64 x i8] }
%struct.ForEachState = type { ptr, i32 }
%struct.List = type { i32, i32, i32, ptr, [0 x %union.ListCell] }
%union.ListCell = type { ptr }
%struct.PublicationRelInfo = type { ptr, ptr, ptr }

@.str.1 = private unnamed_addr constant [18 x i8] c"publicationcmds.c\00", align 1
@.str.18 = private unnamed_addr constant [27 x i8] c"publish_via_partition_root\00", align 1
@.str.37 = private unnamed_addr constant [64 x i8] c"cannot use column list for relation \22%s.%s\22 in publication \22%s\22\00", align 1
@.str.38 = private unnamed_addr constant [91 x i8] c"Column lists cannot be specified in publications containing FOR TABLES IN SCHEMA elements.\00", align 1
@__func__.CheckPubRelationColumnList = private unnamed_addr constant [27 x i8] c"CheckPubRelationColumnList\00", align 1
@.str.39 = private unnamed_addr constant [74 x i8] c"Column lists cannot be specified for partitioned tables when %s is false.\00", align 1

; Function Attrs: nounwind uwtable
define internal void @CheckPubRelationColumnList(ptr noundef %0, ptr noundef %1, i1 noundef zeroext %2, i1 noundef zeroext %3) #0 {
  %5 = alloca ptr, align 8
  %6 = alloca ptr, align 8
  %7 = alloca i8, align 1
  %8 = alloca i8, align 1
  %9 = alloca ptr, align 8
  %10 = alloca %struct.ForEachState, align 8
  %11 = alloca i32, align 4
  %12 = alloca ptr, align 8
  store ptr %0, ptr %5, align 8
  store ptr %1, ptr %6, align 8
  %13 = zext i1 %2 to i8
  store i8 %13, ptr %7, align 1
  %14 = zext i1 %3 to i8
  store i8 %14, ptr %8, align 1
  call void @llvm.lifetime.start.p0(i64 8, ptr %9) #10
  call void @llvm.lifetime.start.p0(i64 16, ptr %10) #10
  %15 = getelementptr inbounds nuw %struct.ForEachState, ptr %10, i32 0, i32 0
  %16 = load ptr, ptr %6, align 8
  store ptr %16, ptr %15, align 8
  %17 = getelementptr inbounds nuw %struct.ForEachState, ptr %10, i32 0, i32 1
  store i32 0, ptr %17, align 8
  %18 = getelementptr i8, ptr %10, i64 12
  call void @llvm.memset.p0.i64(ptr align 4 %18, i8 0, i64 4, i1 false)
  br label %19

19:                                               ; preds = %133, %4
  %20 = getelementptr inbounds nuw %struct.ForEachState, ptr %10, i32 0, i32 0
  %21 = load ptr, ptr %20, align 8
  %22 = icmp ne ptr %21, null
  br i1 %22, label %23, label %40

23:                                               ; preds = %19
  %24 = getelementptr inbounds nuw %struct.ForEachState, ptr %10, i32 0, i32 1
  %25 = load i32, ptr %24, align 8
  %26 = getelementptr inbounds nuw %struct.ForEachState, ptr %10, i32 0, i32 0
  %27 = load ptr, ptr %26, align 8
  %28 = getelementptr inbounds nuw %struct.List, ptr %27, i32 0, i32 1
  %29 = load i32, ptr %28, align 4
  %30 = icmp slt i32 %25, %29
  br i1 %30, label %31, label %40

31:                                               ; preds = %23
  %32 = getelementptr inbounds nuw %struct.ForEachState, ptr %10, i32 0, i32 0
  %33 = load ptr, ptr %32, align 8
  %34 = getelementptr inbounds nuw %struct.List, ptr %33, i32 0, i32 3
  %35 = load ptr, ptr %34, align 8
  %36 = getelementptr inbounds nuw %struct.ForEachState, ptr %10, i32 0, i32 1
  %37 = load i32, ptr %36, align 8
  %38 = sext i32 %37 to i64
  %39 = getelementptr inbounds %union.ListCell, ptr %35, i64 %38
  store ptr %39, ptr %9, align 8
  br label %41

40:                                               ; preds = %23, %19
  store ptr null, ptr %9, align 8
  br label %41

41:                                               ; preds = %40, %31
  %42 = phi i32 [ 1, %31 ], [ 0, %40 ]
  %43 = icmp ne i32 %42, 0
  br i1 %43, label %45, label %44

44:                                               ; preds = %41
  store i32 2, ptr %11, align 4
  call void @llvm.lifetime.end.p0(i64 16, ptr %10) #10
  br label %137

45:                                               ; preds = %41
  call void @llvm.lifetime.start.p0(i64 8, ptr %12) #10
  %46 = load ptr, ptr %9, align 8
  %47 = load ptr, ptr %46, align 8
  store ptr %47, ptr %12, align 8
  %48 = load ptr, ptr %12, align 8
  %49 = getelementptr inbounds nuw %struct.PublicationRelInfo, ptr %48, i32 0, i32 2
  %50 = load ptr, ptr %49, align 8
  %51 = icmp eq ptr %50, null
  br i1 %51, label %52, label %53

52:                                               ; preds = %45
  store i32 4, ptr %11, align 4
  br label %130

53:                                               ; preds = %45
  %54 = load i8, ptr %7, align 1, !range !4, !noundef !5
  %55 = trunc i8 %54 to i1
  br i1 %55, label %56, label %86

56:                                               ; preds = %53
  br label %57

57:                                               ; preds = %56
  br i1 true, label %58, label %60

58:                                               ; preds = %57
  %59 = call zeroext i1 @errstart_cold(i32 noundef 21, ptr noundef null) #11
  br i1 %59, label %62, label %83

60:                                               ; preds = %57
  %61 = call zeroext i1 @errstart(i32 noundef 21, ptr noundef null)
  br i1 %61, label %62, label %83

62:                                               ; preds = %60, %58
  %63 = call i32 @errcode(i32 noundef 50856066)
  %64 = load ptr, ptr %12, align 8
  %65 = getelementptr inbounds nuw %struct.PublicationRelInfo, ptr %64, i32 0, i32 0
  %66 = load ptr, ptr %65, align 8
  %67 = getelementptr inbounds nuw %struct.RelationData, ptr %66, i32 0, i32 13
  %68 = load ptr, ptr %67, align 8
  %69 = getelementptr inbounds nuw %struct.FormData_pg_class, ptr %68, i32 0, i32 2
  %70 = load i32, ptr %69, align 4
  %71 = call ptr @get_namespace_name(i32 noundef %70)
  %72 = load ptr, ptr %12, align 8
  %73 = getelementptr inbounds nuw %struct.PublicationRelInfo, ptr %72, i32 0, i32 0
  %74 = load ptr, ptr %73, align 8
  %75 = getelementptr inbounds nuw %struct.RelationData, ptr %74, i32 0, i32 13
  %76 = load ptr, ptr %75, align 8
  %77 = getelementptr inbounds nuw %struct.FormData_pg_class, ptr %76, i32 0, i32 1
  %78 = getelementptr inbounds nuw %struct.nameData, ptr %77, i32 0, i32 0
  %79 = getelementptr inbounds [64 x i8], ptr %78, i64 0, i64 0
  %80 = load ptr, ptr %5, align 8
  %81 = call i32 (ptr, ...) @errmsg(ptr noundef @.str.37, ptr noundef %71, ptr noundef %79, ptr noundef %80)
  %82 = call i32 (ptr, ...) @errdetail(ptr noundef @.str.38)
  call void @errfinish(ptr noundef @.str.1, i32 noundef 765, ptr noundef @__func__.CheckPubRelationColumnList)
  br label %83

83:                                               ; preds = %62, %60, %58
  unreachable

84:                                               ; No predecessors!
  br label %85

85:                                               ; preds = %84
  br label %86

86:                                               ; preds = %85, %53
  %87 = load i8, ptr %8, align 1, !range !4, !noundef !5
  %88 = trunc i8 %87 to i1
  br i1 %88, label %129, label %89

89:                                               ; preds = %86
  %90 = load ptr, ptr %12, align 8
  %91 = getelementptr inbounds nuw %struct.PublicationRelInfo, ptr %90, i32 0, i32 0
  %92 = load ptr, ptr %91, align 8
  %93 = getelementptr inbounds nuw %struct.RelationData, ptr %92, i32 0, i32 13
  %94 = load ptr, ptr %93, align 8
  %95 = getelementptr inbounds nuw %struct.FormData_pg_class, ptr %94, i32 0, i32 16
  %96 = load i8, ptr %95, align 1
  %97 = sext i8 %96 to i32
  %98 = icmp eq i32 %97, 112
  br i1 %98, label %99, label %129

99:                                               ; preds = %89
  br label %100

100:                                              ; preds = %99
  br i1 true, label %101, label %103

101:                                              ; preds = %100
  %102 = call zeroext i1 @errstart_cold(i32 noundef 21, ptr noundef null) #11
  br i1 %102, label %105, label %126

103:                                              ; preds = %100
  %104 = call zeroext i1 @errstart(i32 noundef 21, ptr noundef null)
  br i1 %104, label %105, label %126

105:                                              ; preds = %103, %101
  %106 = call i32 @errcode(i32 noundef 50856066)
  %107 = load ptr, ptr %12, align 8
  %108 = getelementptr inbounds nuw %struct.PublicationRelInfo, ptr %107, i32 0, i32 0
  %109 = load ptr, ptr %108, align 8
  %110 = getelementptr inbounds nuw %struct.RelationData, ptr %109, i32 0, i32 13
  %111 = load ptr, ptr %110, align 8
  %112 = getelementptr inbounds nuw %struct.FormData_pg_class, ptr %111, i32 0, i32 2
  %113 = load i32, ptr %112, align 4
  %114 = call ptr @get_namespace_name(i32 noundef %113)
  %115 = load ptr, ptr %12, align 8
  %116 = getelementptr inbounds nuw %struct.PublicationRelInfo, ptr %115, i32 0, i32 0
  %117 = load ptr, ptr %116, align 8
  %118 = getelementptr inbounds nuw %struct.RelationData, ptr %117, i32 0, i32 13
  %119 = load ptr, ptr %118, align 8
  %120 = getelementptr inbounds nuw %struct.FormData_pg_class, ptr %119, i32 0, i32 1
  %121 = getelementptr inbounds nuw %struct.nameData, ptr %120, i32 0, i32 0
  %122 = getelementptr inbounds [64 x i8], ptr %121, i64 0, i64 0
  %123 = load ptr, ptr %5, align 8
  %124 = call i32 (ptr, ...) @errmsg(ptr noundef @.str.37, ptr noundef %114, ptr noundef %122, ptr noundef %123)
  %125 = call i32 (ptr, ...) @errdetail(ptr noundef @.str.39, ptr noundef @.str.18)
  call void @errfinish(ptr noundef @.str.1, i32 noundef 780, ptr noundef @__func__.CheckPubRelationColumnList)
  br label %126

126:                                              ; preds = %105, %103, %101
  unreachable

127:                                              ; No predecessors!
  br label %128

128:                                              ; preds = %127
  br label %129

129:                                              ; preds = %128, %89, %86
  store i32 0, ptr %11, align 4
  br label %130

130:                                              ; preds = %129, %52
  call void @llvm.lifetime.end.p0(i64 8, ptr %12) #10
  %131 = load i32, ptr %11, align 4
  switch i32 %131, label %138 [
    i32 0, label %132
    i32 4, label %133
  ]

132:                                              ; preds = %130
  br label %133

133:                                              ; preds = %132, %130
  %134 = getelementptr inbounds nuw %struct.ForEachState, ptr %10, i32 0, i32 1
  %135 = load i32, ptr %134, align 8
  %136 = add i32 %135, 1
  store i32 %136, ptr %134, align 8
  br label %19, !llvm.loop !14

137:                                              ; preds = %44
  call void @llvm.lifetime.end.p0(i64 8, ptr %9) #10
  ret void

138:                                              ; preds = %130
  unreachable
}