; Function Attrs: nounwind uwtable
define internal fastcc void @CheckPubRelationColumnList(ptr noundef %0, ptr noundef readonly captures(address_is_null) %1, i1 noundef zeroext %2, i1 noundef zeroext %3) unnamed_addr #0 {
  %.not = icmp eq ptr %1, null
  br i1 %.not, label %._crit_edge, label %.lr.ph

.lr.ph:                                           ; preds = %4
  %5 = getelementptr inbounds nuw i8, ptr %1, i64 4
  %6 = load i32, ptr %5, align 4
  %7 = getelementptr inbounds nuw i8, ptr %1, i64 16
  br i1 %2, label %.lr.ph.split.us.split, label %.lr.ph.split

.lr.ph.split.us.split:                            ; preds = %.lr.ph
  %8 = icmp sgt i32 %6, 0
  br i1 %8, label %.lr.ph35, label %._crit_edge

.lr.ph35:                                         ; preds = %.lr.ph.split.us.split
  %9 = load ptr, ptr %7, align 8
  %wide.trip.count45 = zext nneg i32 %6 to i64
  br label %11

10:                                               ; preds = %11
  %indvars.iv.next43 = add nuw nsw i64 %indvars.iv42, 1
  %exitcond46.not = icmp eq i64 %indvars.iv.next43, %wide.trip.count45
  br i1 %exitcond46.not, label %._crit_edge, label %11

11:                                               ; preds = %.lr.ph35, %10
  %indvars.iv42 = phi i64 [ 0, %.lr.ph35 ], [ %indvars.iv.next43, %10 ]
  %12 = getelementptr inbounds nuw %union.ListCell, ptr %9, i64 %indvars.iv42
  %13 = load ptr, ptr %12, align 8
  %14 = getelementptr inbounds nuw i8, ptr %13, i64 16
  %15 = load ptr, ptr %14, align 8
  %16 = icmp eq ptr %15, null
  br i1 %16, label %10, label %.split.us

.lr.ph.split:                                     ; preds = %.lr.ph
  %17 = icmp slt i32 %6, 1
  %or.cond.not = select i1 %3, i1 true, i1 %17
  br i1 %or.cond.not, label %._crit_edge, label %.lr.ph27

.lr.ph27:                                         ; preds = %.lr.ph.split
  %18 = load ptr, ptr %7, align 8
  %wide.trip.count = zext nneg i32 %6 to i64
  br label %19

._crit_edge:                                      ; preds = %60, %10, %.lr.ph.split, %.lr.ph.split.us.split, %4
  ret void

19:                                               ; preds = %.lr.ph27, %60
  %indvars.iv = phi i64 [ 0, %.lr.ph27 ], [ %indvars.iv.next, %60 ]
  %20 = getelementptr inbounds nuw %union.ListCell, ptr %18, i64 %indvars.iv
  %21 = load ptr, ptr %20, align 8
  %22 = getelementptr inbounds nuw i8, ptr %21, i64 16
  %23 = load ptr, ptr %22, align 8
  %24 = icmp eq ptr %23, null
  br i1 %24, label %60, label %25

25:                                               ; preds = %19
  %26 = load ptr, ptr %21, align 8
  %27 = getelementptr inbounds nuw i8, ptr %26, i64 56
  %28 = load ptr, ptr %27, align 8
  %29 = getelementptr inbounds nuw i8, ptr %28, i64 115
  %30 = load i8, ptr %29, align 1
  %31 = icmp eq i8 %30, 112
  br i1 %31, label %.split.us25, label %60

.split.us:                                        ; preds = %11
  %32 = tail call zeroext i1 @errstart_cold(i32 noundef 21, ptr noundef null) #9
  tail call void @llvm.assume(i1 %32)
  %33 = tail call i32 @errcode(i32 noundef 50856066) #8
  %34 = load ptr, ptr %13, align 8
  %35 = getelementptr inbounds nuw i8, ptr %34, i64 56
  %36 = load ptr, ptr %35, align 8
  %37 = getelementptr inbounds nuw i8, ptr %36, i64 68
  %38 = load i32, ptr %37, align 4
  %39 = tail call ptr @get_namespace_name(i32 noundef %38) #8
  %40 = load ptr, ptr %13, align 8
  %41 = getelementptr inbounds nuw i8, ptr %40, i64 56
  %42 = load ptr, ptr %41, align 8
  %43 = getelementptr inbounds nuw i8, ptr %42, i64 4
  %44 = tail call i32 (ptr, ...) @errmsg(ptr noundef nonnull @.str.37, ptr noundef %39, ptr noundef nonnull %43, ptr noundef %0) #8
  %45 = tail call i32 (ptr, ...) @errdetail(ptr noundef nonnull @.str.38) #8
  tail call void @errfinish(ptr noundef nonnull @.str.1, i32 noundef 765, ptr noundef nonnull @__func__.CheckPubRelationColumnList) #8
  unreachable

.split.us25:                                      ; preds = %25
  %46 = tail call zeroext i1 @errstart_cold(i32 noundef 21, ptr noundef null) #9
  tail call void @llvm.assume(i1 %46)
  %47 = tail call i32 @errcode(i32 noundef 50856066) #8
  %48 = load ptr, ptr %21, align 8
  %49 = getelementptr inbounds nuw i8, ptr %48, i64 56
  %50 = load ptr, ptr %49, align 8
  %51 = getelementptr inbounds nuw i8, ptr %50, i64 68
  %52 = load i32, ptr %51, align 4
  %53 = tail call ptr @get_namespace_name(i32 noundef %52) #8
  %54 = load ptr, ptr %21, align 8
  %55 = getelementptr inbounds nuw i8, ptr %54, i64 56
  %56 = load ptr, ptr %55, align 8
  %57 = getelementptr inbounds nuw i8, ptr %56, i64 4
  %58 = tail call i32 (ptr, ...) @errmsg(ptr noundef nonnull @.str.37, ptr noundef %53, ptr noundef nonnull %57, ptr noundef %0) #8
  %59 = tail call i32 (ptr, ...) @errdetail(ptr noundef nonnull @.str.39, ptr noundef nonnull @.str.18) #8
  tail call void @errfinish(ptr noundef nonnull @.str.1, i32 noundef 780, ptr noundef nonnull @__func__.CheckPubRelationColumnList) #8
  unreachable

60:                                               ; preds = %25, %19
  %indvars.iv.next = add nuw nsw i64 %indvars.iv, 1
  %exitcond.not = icmp eq i64 %indvars.iv.next, %wide.trip.count
  br i1 %exitcond.not, label %._crit_edge, label %19
}